; Function Attrs: nounwind uwtable
define internal i32 @externalEntityContentProcessor(ptr noundef %0, ptr noundef %1, ptr noundef %2, ptr noundef writeonly captures(none) %3) #0 {
  %5 = getelementptr inbounds nuw i8, ptr %0, i64 304
  %6 = load ptr, ptr %5, align 8, !tbaa !206
  %7 = getelementptr inbounds nuw i8, ptr %0, i64 924
  %8 = load i8, ptr %7, align 4, !tbaa !202
  %.not = icmp eq i8 %8, 0
  %9 = zext i1 %.not to i8
  %10 = tail call fastcc i32 @doContent(ptr noundef %0, i32 noundef 1, ptr noundef %6, ptr noundef %1, ptr noundef %2, ptr noundef %3, i8 noundef zeroext %9, i32 noundef 1)
  %11 = icmp eq i32 %10, 0
  br i1 %11, label %12, label %storeRawNames.exit

12:                                               ; preds = %4
  %13 = getelementptr inbounds nuw i8, ptr %0, i64 704
  %14 = getelementptr inbounds nuw i8, ptr %0, i64 32
  %.04762.i = load ptr, ptr %13, align 8, !tbaa !239
  %.not63.i = icmp eq ptr %.04762.i, null
  br i1 %.not63.i, label %storeRawNames.exit, label %.lr.ph.i

.lr.ph.i:                                         ; preds = %12, %60
  %.04764.i = phi ptr [ %.047.i, %60 ], [ %.04762.i, %12 ]
  %15 = getelementptr inbounds nuw i8, ptr %.04764.i, i64 24
  %16 = getelementptr inbounds nuw i8, ptr %.04764.i, i64 48
  %17 = load i32, ptr %16, align 8, !tbaa !240
  %18 = add i32 %17, 1
  %19 = sext i32 %18 to i64
  %20 = getelementptr inbounds nuw i8, ptr %.04764.i, i64 64
  %21 = load ptr, ptr %20, align 8, !tbaa !183
  %22 = getelementptr i8, ptr %21, i64 %19
  %23 = getelementptr inbounds nuw i8, ptr %.04764.i, i64 8
  %24 = load ptr, ptr %23, align 8, !tbaa !241
  %25 = icmp eq ptr %24, %22
  br i1 %25, label %storeRawNames.exit, label %26

26:                                               ; preds = %.lr.ph.i
  %27 = getelementptr inbounds nuw i8, ptr %.04764.i, i64 16
  %28 = load i32, ptr %27, align 8, !tbaa !242
  %29 = sext i32 %28 to i64
  %30 = sub nsw i64 2147483647, %19
  %31 = icmp ult i64 %30, %29
  br i1 %31, label %storeRawNames.exit, label %32

32:                                               ; preds = %26
  %33 = add i32 %28, %18
  %34 = sext i32 %33 to i64
  %35 = getelementptr inbounds nuw i8, ptr %.04764.i, i64 72
  %36 = load ptr, ptr %35, align 8, !tbaa !243
  %37 = ptrtoint ptr %36 to i64
  %38 = ptrtoint ptr %21 to i64
  %39 = sub i64 %37, %38
  %40 = icmp slt i64 %39, %34
  br i1 %40, label %41, label %60

41:                                               ; preds = %32
  %42 = load ptr, ptr %14, align 8, !tbaa !210
  %43 = tail call ptr %42(ptr noundef %21, i64 noundef %34) #25
  %.not54.i = icmp eq ptr %43, null
  br i1 %.not54.i, label %storeRawNames.exit, label %44

44:                                               ; preds = %41
  %45 = load ptr, ptr %15, align 8, !tbaa !244
  %46 = load ptr, ptr %20, align 8, !tbaa !183
  %47 = icmp eq ptr %45, %46
  br i1 %47, label %48, label %49

48:                                               ; preds = %44
  store ptr %43, ptr %15, align 8, !tbaa !244
  br label %49

49:                                               ; preds = %48, %44
  %50 = getelementptr inbounds nuw i8, ptr %.04764.i, i64 32
  %51 = load ptr, ptr %50, align 8, !tbaa !245
  %.not53.i = icmp eq ptr %51, null
  br i1 %.not53.i, label %57, label %52

52:                                               ; preds = %49
  %53 = ptrtoint ptr %51 to i64
  %54 = ptrtoint ptr %46 to i64
  %55 = sub i64 %53, %54
  %56 = getelementptr i8, ptr %43, i64 %55
  store ptr %56, ptr %50, align 8, !tbaa !245
  br label %57

57:                                               ; preds = %52, %49
  store ptr %43, ptr %20, align 8, !tbaa !183
  %58 = getelementptr i8, ptr %43, i64 %34
  store ptr %58, ptr %35, align 8, !tbaa !243
  %59 = getelementptr i8, ptr %43, i64 %19
  %.pre.i = load ptr, ptr %23, align 8, !tbaa !241
  %.pre71.i = load i32, ptr %27, align 8, !tbaa !242
  %.pre72.i = sext i32 %.pre71.i to i64
  br label %60

60:                                               ; preds = %57, %32
  %.pre-phi.i = phi i64 [ %29, %32 ], [ %.pre72.i, %57 ]
  %61 = phi ptr [ %24, %32 ], [ %.pre.i, %57 ]
  %.045.i = phi ptr [ %22, %32 ], [ %59, %57 ]
  tail call void @llvm.memcpy.p0.p0.i64(ptr align 1 %.045.i, ptr align 1 %61, i64 %.pre-phi.i, i1 false)
  store ptr %.045.i, ptr %23, align 8, !tbaa !241
  %.047.i = load ptr, ptr %.04764.i, align 8, !tbaa !239
  %.not.i = icmp eq ptr %.047.i, null
  br i1 %.not.i, label %storeRawNames.exit, label %.lr.ph.i

storeRawNames.exit:                               ; preds = %60, %.lr.ph.i, %41, %26, %12, %4
  %.0 = phi i32 [ %10, %4 ], [ 0, %12 ], [ 0, %60 ], [ 0, %.lr.ph.i ], [ 1, %41 ], [ 1, %26 ]
  ret i32 %.0
}